; Function Attrs: nounwind uwtable
define dso_local noundef zeroext i1 @do_lo_export(ptr noundef readonly captures(none) %0, ptr noundef %1) local_unnamed_addr #0 {
  %3 = alloca i8, align 1
  call void @llvm.lifetime.start.p0(i64 1, ptr nonnull %3) #8
  %4 = call fastcc zeroext i1 @start_lo_xact(ptr noundef nonnull @.str, ptr noundef %3)
  br i1 %4, label %5, label %fail_lo_xact.exit

5:                                                ; preds = %2
  tail call void @SetCancelConn(ptr noundef null) #8
  %6 = load ptr, ptr @pset, align 8
  %7 = tail call i64 @strtoul(ptr noundef captures(none) %0, ptr noundef null, i32 noundef 10) #8
  %8 = trunc i64 %7 to i32
  %9 = tail call i32 @lo_export(ptr noundef %6, i32 noundef %8, ptr noundef %1) #8
  tail call void @ResetCancelConn() #8
  %.not = icmp eq i32 %9, 1
  br i1 %.not, label %20, label %10

10:                                               ; preds = %5
  %11 = load ptr, ptr @pset, align 8
  %12 = tail call ptr @PQerrorMessage(ptr noundef %11) #8
  tail call void (i32, i32, ptr, ...) @pg_log_generic(i32 noundef 2, i32 noundef 0, ptr noundef nonnull @.str.1, ptr noundef %12) #8
  %13 = load i8, ptr %3, align 1, !range !4, !noundef !5
  %14 = trunc nuw i8 %13 to i1
  br i1 %14, label %15, label %fail_lo_xact.exit

15:                                               ; preds = %10
  %16 = load i8, ptr getelementptr inbounds nuw (i8, ptr @pset, i64 400), align 8, !range !4, !noundef !5
  %17 = trunc nuw i8 %16 to i1
  br i1 %17, label %18, label %fail_lo_xact.exit

18:                                               ; preds = %15
  %19 = tail call ptr @PSQLexec(ptr noundef nonnull @.str.15) #8
  tail call void @PQclear(ptr noundef %19) #8
  br label %fail_lo_xact.exit

20:                                               ; preds = %5
  %21 = load i8, ptr %3, align 1, !range !4, !noundef !5
  %22 = trunc nuw i8 %21 to i1
  br i1 %22, label %23, label %finish_lo_xact.exit.thread

23:                                               ; preds = %20
  %24 = load i8, ptr getelementptr inbounds nuw (i8, ptr @pset, i64 400), align 8, !range !4, !noundef !5
  %25 = trunc nuw i8 %24 to i1
  br i1 %25, label %26, label %finish_lo_xact.exit.thread

26:                                               ; preds = %23
  %27 = tail call ptr @PSQLexec(ptr noundef nonnull @.str.16) #8
  %.not.i.not = icmp eq ptr %27, null
  br i1 %.not.i.not, label %finish_lo_xact.exit, label %finish_lo_xact.exit.thread4

finish_lo_xact.exit.thread4:                      ; preds = %26
  tail call void @PQclear(ptr noundef nonnull %27) #8
  br label %finish_lo_xact.exit.thread

finish_lo_xact.exit:                              ; preds = %26
  %28 = tail call ptr @PSQLexec(ptr noundef nonnull @.str.15) #8
  tail call void @PQclear(ptr noundef %28) #8
  br label %fail_lo_xact.exit

finish_lo_xact.exit.thread:                       ; preds = %20, %23, %finish_lo_xact.exit.thread4
  tail call void (ptr, ...) @print_lo_result(ptr noundef nonnull @.str.2)
  br label %fail_lo_xact.exit

fail_lo_xact.exit:                                ; preds = %finish_lo_xact.exit, %18, %15, %10, %2, %finish_lo_xact.exit.thread
  %.0 = phi i1 [ true, %finish_lo_xact.exit.thread ], [ false, %2 ], [ false, %finish_lo_xact.exit ], [ false, %10 ], [ false, %15 ], [ false, %18 ]
  call void @llvm.lifetime.end.p0(i64 1, ptr nonnull %3) #8
  ret i1 %.0
}